In archive libArduinoGsmDriver.a:

GsmSIM900.o:     file format elf32-avr

Sections:
Idx Name          Size      VMA       LMA       File off  Algn
  0 .text         00000000  00000000  00000000  00000034  2**0
                  CONTENTS, ALLOC, LOAD, READONLY, CODE
  1 .data         00000000  00000000  00000000  00000034  2**0
                  CONTENTS, ALLOC, LOAD, DATA
  2 .bss          00000000  00000000  00000000  00000034  2**0
                  ALLOC
  3 .comment      00000012  00000000  00000000  00000034  2**0
                  CONTENTS, READONLY

Sms.o:     file format elf32-avr

Sections:
Idx Name          Size      VMA       LMA       File off  Algn
  0 .text         00000000  00000000  00000000  00000034  2**0
                  CONTENTS, ALLOC, LOAD, READONLY, CODE
  1 .data         00000000  00000000  00000000  00000034  2**0
                  CONTENTS, ALLOC, LOAD, DATA
  2 .bss          00000000  00000000  00000000  00000034  2**0
                  ALLOC
  3 .comment      00000012  00000000  00000000  00000034  2**0
                  CONTENTS, READONLY

SIM900.o:     file format elf32-avr

Sections:
Idx Name          Size      VMA       LMA       File off  Algn
  0 .group        00000008  00000000  00000000  00000034  2**2
                  CONTENTS, READONLY, EXCLUDE, GROUP, LINK_ONCE_DISCARD
  1 .text         00000000  00000000  00000000  0000003c  2**0
                  CONTENTS, ALLOC, LOAD, READONLY, CODE
  2 .data         00000000  00000000  00000000  0000003c  2**0
                  CONTENTS, ALLOC, LOAD, DATA
  3 .bss          00000000  00000000  00000000  0000003c  2**0
                  ALLOC
  4 .text._ZN6SIM900C2Ehh 00000024  00000000  00000000  0000003c  2**0
                  CONTENTS, ALLOC, LOAD, RELOC, READONLY, CODE
  5 .text._ZN6SIM90019doesResponseContainEPKc 00000022  00000000  00000000  00000060  2**0
                  CONTENTS, ALLOC, LOAD, RELOC, READONLY, CODE
  6 .text._ZN6SIM90012readResponseEm 00000100  00000000  00000000  00000082  2**0
                  CONTENTS, ALLOC, LOAD, RELOC, READONLY, CODE
  7 .rodata.str1.1 00000006  00000000  00000000  00000182  2**0
                  CONTENTS, ALLOC, LOAD, READONLY, DATA
  8 .text._ZN6SIM90011sendCommandEPKcbm 00000050  00000000  00000000  00000188  2**0
                  CONTENTS, ALLOC, LOAD, RELOC, READONLY, CODE
  9 .text._ZN6SIM90020sendCommandExpectingEPKcS1_bm 0000004e  00000000  00000000  000001d8  2**0
                  CONTENTS, ALLOC, LOAD, RELOC, READONLY, CODE
 10 .text._ZN6SIM9005beginEl 00000056  00000000  00000000  00000226  2**0
                  CONTENTS, ALLOC, LOAD, RELOC, READONLY, CODE
 11 .text._ZN6SIM90014setCommandEchoEb 00000050  00000000  00000000  0000027c  2**0
                  CONTENTS, ALLOC, LOAD, RELOC, READONLY, CODE
 12 .rodata._ZTV6SIM900 00000010  00000000  00000000  000002cc  2**0
                  CONTENTS, ALLOC, LOAD, RELOC, READONLY, DATA
 13 .comment      00000012  00000000  00000000  000002dc  2**0
                  CONTENTS, READONLY

Disassembly of section .text._ZN6SIM900C2Ehh:

00000000 <_ZN6SIM900C1Ehh>:
   0:	cf 93       	push	r28
   2:	df 93       	push	r29
   4:	ec 01       	movw	r28, r24
   6:	20 e0       	ldi	r18, 0x00	; 0
   8:	0e 94 00 00 	call	0	; 0x0 <_ZN6SIM900C1Ehh>
   c:	80 e0       	ldi	r24, 0x00	; 0
   e:	90 e0       	ldi	r25, 0x00	; 0
  10:	99 83       	std	Y+1, r25	; 0x01
  12:	88 83       	st	Y, r24
  14:	1f 8e       	std	Y+31, r1	; 0x1f
  16:	cf 5d       	subi	r28, 0xDF	; 223
  18:	de 4f       	sbci	r29, 0xFE	; 254
  1a:	81 e0       	ldi	r24, 0x01	; 1
  1c:	88 83       	st	Y, r24
  1e:	df 91       	pop	r29
  20:	cf 91       	pop	r28
  22:	08 95       	ret

Disassembly of section .text._ZN6SIM90019doesResponseContainEPKc:

00000024 <_ZN6SIM90019doesResponseContainEPKc>:
  24:	9c 01       	movw	r18, r24
  26:	21 5e       	subi	r18, 0xE1	; 225
  28:	3f 4f       	sbci	r19, 0xFF	; 255
  2a:	fc 01       	movw	r30, r24
  2c:	e1 5e       	subi	r30, 0xE1	; 225
  2e:	fe 4f       	sbci	r31, 0xFE	; 254
  30:	31 83       	std	Z+1, r19	; 0x01
  32:	20 83       	st	Z, r18
  34:	c9 01       	movw	r24, r18
  36:	0e 94 00 00 	call	0	; 0x0 <__tmp_reg__>
  3a:	21 e0       	ldi	r18, 0x01	; 1
  3c:	89 2b       	or	r24, r25
  3e:	01 f4       	brne	.+0      	; 0x40 <_ZN6SIM90019doesResponseContainEPKc+0x1c>
  40:	20 e0       	ldi	r18, 0x00	; 0
  42:	82 2f       	mov	r24, r18
  44:	08 95       	ret

Disassembly of section .text._ZN6SIM90012readResponseEm:

0000006a <_ZN6SIM90012readResponseEm>:
  6a:	4f 92       	push	r4
  6c:	5f 92       	push	r5
  6e:	6f 92       	push	r6
  70:	7f 92       	push	r7
  72:	8f 92       	push	r8
  74:	9f 92       	push	r9
  76:	af 92       	push	r10
  78:	bf 92       	push	r11
  7a:	cf 92       	push	r12
  7c:	df 92       	push	r13
  7e:	ef 92       	push	r14
  80:	ff 92       	push	r15
  82:	0f 93       	push	r16
  84:	1f 93       	push	r17
  86:	cf 93       	push	r28
  88:	df 93       	push	r29
  8a:	ec 01       	movw	r28, r24
  8c:	6a 01       	movw	r12, r20
  8e:	7b 01       	movw	r14, r22
  90:	0e 94 00 00 	call	0	; 0x0 <__tmp_reg__>
  94:	4b 01       	movw	r8, r22
  96:	5c 01       	movw	r10, r24
  98:	e8 81       	ld	r30, Y
  9a:	f9 81       	ldd	r31, Y+1	; 0x01
  9c:	04 80       	ldd	r0, Z+4	; 0x04
  9e:	f5 81       	ldd	r31, Z+5	; 0x05
  a0:	e0 2d       	mov	r30, r0
  a2:	ce 01       	movw	r24, r28
  a4:	09 95       	icall
  a6:	89 2b       	or	r24, r25
  a8:	01 f4       	brne	.+0      	; 0xaa <_ZN6SIM90012readResponseEm+0x40>
  aa:	0e 94 00 00 	call	0	; 0x0 <__tmp_reg__>
  ae:	68 19       	sub	r22, r8
  b0:	79 09       	sbc	r23, r9
  b2:	8a 09       	sbc	r24, r10
  b4:	9b 09       	sbc	r25, r11
  b6:	6c 15       	cp	r22, r12
  b8:	7d 05       	cpc	r23, r13
  ba:	8e 05       	cpc	r24, r14
  bc:	9f 05       	cpc	r25, r15
  be:	00 f0       	brcs	.+0      	; 0xc0 <_ZN6SIM90012readResponseEm+0x56>
  c0:	0e 94 00 00 	call	0	; 0x0 <__tmp_reg__>
  c4:	2b 01       	movw	r4, r22
  c6:	3c 01       	movw	r6, r24
  c8:	00 e0       	ldi	r16, 0x00	; 0
  ca:	10 e0       	ldi	r17, 0x00	; 0
  cc:	88 24       	eor	r8, r8
  ce:	8a 94       	dec	r8
  d0:	91 2c       	mov	r9, r1
  d2:	e8 81       	ld	r30, Y
  d4:	f9 81       	ldd	r31, Y+1	; 0x01
  d6:	04 80       	ldd	r0, Z+4	; 0x04
  d8:	f5 81       	ldd	r31, Z+5	; 0x05
  da:	e0 2d       	mov	r30, r0
  dc:	ce 01       	movw	r24, r28
  de:	09 95       	icall
  e0:	5c 01       	movw	r10, r24
  e2:	18 16       	cp	r1, r24
  e4:	19 06       	cpc	r1, r25
  e6:	04 f4       	brge	.+0      	; 0xe8 <_ZN6SIM90012readResponseEm+0x7e>
  e8:	c8 01       	movw	r24, r16
  ea:	8a 0d       	add	r24, r10
  ec:	9b 1d       	adc	r25, r11
  ee:	8f 3f       	cpi	r24, 0xFF	; 255
  f0:	91 05       	cpc	r25, r1
  f2:	01 f0       	breq	.+0      	; 0xf4 <_ZN6SIM90012readResponseEm+0x8a>
  f4:	04 f0       	brlt	.+0      	; 0xf6 <_ZN6SIM90012readResponseEm+0x8c>
  f6:	54 01       	movw	r10, r8
  f8:	a0 1a       	sub	r10, r16
  fa:	b1 0a       	sbc	r11, r17
  fc:	01 f4       	brne	.+0      	; 0xfe <_ZN6SIM90012readResponseEm+0x94>
  fe:	e8 81       	ld	r30, Y
 100:	f9 81       	ldd	r31, Y+1	; 0x01
 102:	02 84       	ldd	r0, Z+10	; 0x0a
 104:	f3 85       	ldd	r31, Z+11	; 0x0b
 106:	e0 2d       	mov	r30, r0
 108:	ce 01       	movw	r24, r28
 10a:	09 95       	icall
 10c:	00 c0       	rjmp	.+0      	; 0x10e <_ZN6SIM90012readResponseEm+0xa4>
 10e:	b8 01       	movw	r22, r16
 110:	61 5e       	subi	r22, 0xE1	; 225
 112:	7f 4f       	sbci	r23, 0xFF	; 255
 114:	6c 0f       	add	r22, r28
 116:	7d 1f       	adc	r23, r29
 118:	a5 01       	movw	r20, r10
 11a:	ce 01       	movw	r24, r28
 11c:	0e 94 00 00 	call	0	; 0x0 <__tmp_reg__>
 120:	0a 0d       	add	r16, r10
 122:	1b 1d       	adc	r17, r11
 124:	fe 01       	movw	r30, r28
 126:	e0 0f       	add	r30, r16
 128:	f1 1f       	adc	r31, r17
 12a:	17 8e       	std	Z+31, r1	; 0x1f
 12c:	0e 94 00 00 	call	0	; 0x0 <__tmp_reg__>
 130:	64 19       	sub	r22, r4
 132:	75 09       	sbc	r23, r5
 134:	86 09       	sbc	r24, r6
 136:	97 09       	sbc	r25, r7
 138:	6c 15       	cp	r22, r12
 13a:	7d 05       	cpc	r23, r13
 13c:	8e 05       	cpc	r24, r14
 13e:	9f 05       	cpc	r25, r15
 140:	00 f4       	brcc	.+0      	; 0x142 <_ZN6SIM90012readResponseEm+0xd8>
 142:	ab 28       	or	r10, r11
 144:	01 f4       	brne	.+0      	; 0x146 <_ZN6SIM90012readResponseEm+0xdc>
 146:	c8 01       	movw	r24, r16
 148:	df 91       	pop	r29
 14a:	cf 91       	pop	r28
 14c:	1f 91       	pop	r17
 14e:	0f 91       	pop	r16
 150:	ff 90       	pop	r15
 152:	ef 90       	pop	r14
 154:	df 90       	pop	r13
 156:	cf 90       	pop	r12
 158:	bf 90       	pop	r11
 15a:	af 90       	pop	r10
 15c:	9f 90       	pop	r9
 15e:	8f 90       	pop	r8
 160:	7f 90       	pop	r7
 162:	6f 90       	pop	r6
 164:	5f 90       	pop	r5
 166:	4f 90       	pop	r4
 168:	08 95       	ret

Disassembly of section .text._ZN6SIM90011sendCommandEPKcbm:

000003ae <_ZN6SIM90011sendCommandEPKcbm>:
 3ae:	af 92       	push	r10
 3b0:	bf 92       	push	r11
 3b2:	cf 92       	push	r12
 3b4:	df 92       	push	r13
 3b6:	ef 92       	push	r14
 3b8:	ff 92       	push	r15
 3ba:	0f 93       	push	r16
 3bc:	1f 93       	push	r17
 3be:	cf 93       	push	r28
 3c0:	df 93       	push	r29
 3c2:	ec 01       	movw	r28, r24
 3c4:	5b 01       	movw	r10, r22
 3c6:	68 01       	movw	r12, r16
 3c8:	79 01       	movw	r14, r18
 3ca:	1f 8e       	std	Y+31, r1	; 0x1f
 3cc:	44 23       	and	r20, r20
 3ce:	01 f0       	breq	.+0      	; 0x3d0 <_ZN6SIM90011sendCommandEPKcbm+0x22>
 3d0:	60 e0       	ldi	r22, 0x00	; 0
 3d2:	70 e0       	ldi	r23, 0x00	; 0
 3d4:	0e 94 00 00 	call	0	; 0x0 <__tmp_reg__>
 3d8:	b5 01       	movw	r22, r10
 3da:	ce 01       	movw	r24, r28
 3dc:	0e 94 00 00 	call	0	; 0x0 <__tmp_reg__>
 3e0:	b7 01       	movw	r22, r14
 3e2:	a6 01       	movw	r20, r12
 3e4:	ce 01       	movw	r24, r28
 3e6:	df 91       	pop	r29
 3e8:	cf 91       	pop	r28
 3ea:	1f 91       	pop	r17
 3ec:	0f 91       	pop	r16
 3ee:	ff 90       	pop	r15
 3f0:	ef 90       	pop	r14
 3f2:	df 90       	pop	r13
 3f4:	cf 90       	pop	r12
 3f6:	bf 90       	pop	r11
 3f8:	af 90       	pop	r10
 3fa:	0c 94 00 00 	jmp	0	; 0x0 <__tmp_reg__>

Disassembly of section .text._ZN6SIM90020sendCommandExpectingEPKcS1_bm:

000007ac <_ZN6SIM90020sendCommandExpectingEPKcS1_bm>:
 7ac:	cf 92       	push	r12
 7ae:	df 92       	push	r13
 7b0:	ef 92       	push	r14
 7b2:	ff 92       	push	r15
 7b4:	0f 93       	push	r16
 7b6:	1f 93       	push	r17
 7b8:	cf 93       	push	r28
 7ba:	df 93       	push	r29
 7bc:	ec 01       	movw	r28, r24
 7be:	6a 01       	movw	r12, r20
 7c0:	42 2f       	mov	r20, r18
 7c2:	98 01       	movw	r18, r16
 7c4:	87 01       	movw	r16, r14
 7c6:	0e 94 00 00 	call	0	; 0x0 <__tmp_reg__>
 7ca:	89 2b       	or	r24, r25
 7cc:	01 f0       	breq	.+0      	; 0x7ce <_ZN6SIM90020sendCommandExpectingEPKcS1_bm+0x22>
 7ce:	b6 01       	movw	r22, r12
 7d0:	ce 01       	movw	r24, r28
 7d2:	df 91       	pop	r29
 7d4:	cf 91       	pop	r28
 7d6:	1f 91       	pop	r17
 7d8:	0f 91       	pop	r16
 7da:	ff 90       	pop	r15
 7dc:	ef 90       	pop	r14
 7de:	df 90       	pop	r13
 7e0:	cf 90       	pop	r12
 7e2:	0c 94 00 00 	jmp	0	; 0x0 <__tmp_reg__>
 7e6:	80 e0       	ldi	r24, 0x00	; 0
 7e8:	df 91       	pop	r29
 7ea:	cf 91       	pop	r28
 7ec:	1f 91       	pop	r17
 7ee:	0f 91       	pop	r16
 7f0:	ff 90       	pop	r15
 7f2:	ef 90       	pop	r14
 7f4:	df 90       	pop	r13
 7f6:	cf 90       	pop	r12
 7f8:	08 95       	ret

Disassembly of section .text._ZN6SIM9005beginEl:

00000fa6 <_ZN6SIM9005beginEl>:
 fa6:	df 92       	push	r13
 fa8:	ef 92       	push	r14
 faa:	ff 92       	push	r15
 fac:	0f 93       	push	r16
 fae:	1f 93       	push	r17
 fb0:	cf 93       	push	r28
 fb2:	df 93       	push	r29
 fb4:	ec 01       	movw	r28, r24
 fb6:	0e 94 00 00 	call	0	; 0x0 <__tmp_reg__>
 fba:	24 e0       	ldi	r18, 0x04	; 4
 fbc:	d2 2e       	mov	r13, r18
 fbe:	14 e6       	ldi	r17, 0x64	; 100
 fc0:	e1 2e       	mov	r14, r17
 fc2:	f1 2c       	mov	r15, r1
 fc4:	00 e0       	ldi	r16, 0x00	; 0
 fc6:	10 e0       	ldi	r17, 0x00	; 0
 fc8:	20 e0       	ldi	r18, 0x00	; 0
 fca:	40 e0       	ldi	r20, 0x00	; 0
 fcc:	50 e0       	ldi	r21, 0x00	; 0
 fce:	60 e0       	ldi	r22, 0x00	; 0
 fd0:	70 e0       	ldi	r23, 0x00	; 0
 fd2:	ce 01       	movw	r24, r28
 fd4:	0e 94 00 00 	call	0	; 0x0 <__tmp_reg__>
 fd8:	81 11       	cpse	r24, r1
 fda:	00 c0       	rjmp	.+0      	; 0xfdc <_ZN6SIM9005beginEl+0x36>
 fdc:	64 e6       	ldi	r22, 0x64	; 100
 fde:	70 e0       	ldi	r23, 0x00	; 0
 fe0:	80 e0       	ldi	r24, 0x00	; 0
 fe2:	90 e0       	ldi	r25, 0x00	; 0
 fe4:	0e 94 00 00 	call	0	; 0x0 <__tmp_reg__>
 fe8:	da 94       	dec	r13
 fea:	01 f4       	brne	.+0      	; 0xfec <_ZN6SIM9005beginEl+0x46>
 fec:	df 91       	pop	r29
 fee:	cf 91       	pop	r28
 ff0:	1f 91       	pop	r17
 ff2:	0f 91       	pop	r16
 ff4:	ff 90       	pop	r15
 ff6:	ef 90       	pop	r14
 ff8:	df 90       	pop	r13
 ffa:	08 95       	ret

Disassembly of section .text._ZN6SIM90014setCommandEchoEb:

00001fa2 <_ZN6SIM90014setCommandEchoEb>:
    1fa2:	0f 93       	push	r16
    1fa4:	1f 93       	push	r17
    1fa6:	cf 93       	push	r28
    1fa8:	df 93       	push	r29
    1faa:	00 d0       	rcall	.+0      	; 0x1fac <_ZN6SIM90014setCommandEchoEb+0xa>
    1fac:	1f 92       	push	r1
    1fae:	cd b7       	in	r28, 0x3d	; 61
    1fb0:	de b7       	in	r29, 0x3e	; 62
    1fb2:	fc 01       	movw	r30, r24
    1fb4:	ef 5d       	subi	r30, 0xDF	; 223
    1fb6:	fe 4f       	sbci	r31, 0xFE	; 254
    1fb8:	60 83       	st	Z, r22
    1fba:	25 e4       	ldi	r18, 0x45	; 69
    1fbc:	30 e3       	ldi	r19, 0x30	; 48
    1fbe:	40 e0       	ldi	r20, 0x00	; 0
    1fc0:	29 83       	std	Y+1, r18	; 0x01
    1fc2:	3a 83       	std	Y+2, r19	; 0x02
    1fc4:	4b 83       	std	Y+3, r20	; 0x03
    1fc6:	66 23       	and	r22, r22
    1fc8:	01 f0       	breq	.+0      	; 0x1fca <_ZN6SIM90014setCommandEchoEb+0x28>
    1fca:	21 e3       	ldi	r18, 0x31	; 49
    1fcc:	2a 83       	std	Y+2, r18	; 0x02
    1fce:	04 e6       	ldi	r16, 0x64	; 100
    1fd0:	10 e0       	ldi	r17, 0x00	; 0
    1fd2:	20 e0       	ldi	r18, 0x00	; 0
    1fd4:	30 e0       	ldi	r19, 0x00	; 0
    1fd6:	41 e0       	ldi	r20, 0x01	; 1
    1fd8:	be 01       	movw	r22, r28
    1fda:	6f 5f       	subi	r22, 0xFF	; 255
    1fdc:	7f 4f       	sbci	r23, 0xFF	; 255
    1fde:	0e 94 00 00 	call	0	; 0x0 <__tmp_reg__>
    1fe2:	0f 90       	pop	r0
    1fe4:	0f 90       	pop	r0
    1fe6:	0f 90       	pop	r0
    1fe8:	df 91       	pop	r29
    1fea:	cf 91       	pop	r28
    1fec:	1f 91       	pop	r17
    1fee:	0f 91       	pop	r16
    1ff0:	08 95       	ret

GprsSIM900.o:     file format elf32-avr

Sections:
Idx Name          Size      VMA       LMA       File off  Algn
  0 .group        00000008  00000000  00000000  00000034  2**2
                  CONTENTS, READONLY, EXCLUDE, GROUP, LINK_ONCE_DISCARD
  1 .group        00000008  00000000  00000000  0000003c  2**2
                  CONTENTS, READONLY, EXCLUDE, GROUP, LINK_ONCE_DISCARD
  2 .group        00000008  00000000  00000000  00000044  2**2
                  CONTENTS, READONLY, EXCLUDE, GROUP, LINK_ONCE_DISCARD
  3 .group        00000008  00000000  00000000  0000004c  2**2
                  CONTENTS, READONLY, EXCLUDE, GROUP, LINK_ONCE_DISCARD
  4 .text         00000000  00000000  00000000  00000054  2**0
                  CONTENTS, ALLOC, LOAD, READONLY, CODE
  5 .data         00000000  00000000  00000000  00000054  2**0
                  CONTENTS, ALLOC, LOAD, DATA
  6 .bss          00000000  00000000  00000000  00000054  2**0
                  ALLOC
  7 .text._ZN10GprsSIM9004openEPKcS1_j 00000020  00000000  00000000  00000054  2**0
                  CONTENTS, ALLOC, LOAD, READONLY, CODE
  8 .text._ZN10GprsSIM9005closeEv 00000010  00000000  00000000  00000074  2**0
                  CONTENTS, ALLOC, LOAD, READONLY, CODE
  9 .text._ZN10GprsSIM9004sendEPhj 00000002  00000000  00000000  00000084  2**0
                  CONTENTS, ALLOC, LOAD, READONLY, CODE
 10 .text._ZN10GprsSIM90011setUpServerEhj 00000002  00000000  00000000  00000086  2**0
                  CONTENTS, ALLOC, LOAD, READONLY, CODE
 11 .text._ZN10GprsSIM9008shutdownEv 00000002  00000000  00000000  00000088  2**0
                  CONTENTS, ALLOC, LOAD, READONLY, CODE
 12 .rodata.str1.1 0000006f  00000000  00000000  0000008a  2**0
                  CONTENTS, ALLOC, LOAD, READONLY, DATA
 13 .text._ZN10GprsSIM9007bringUpEv 00000036  00000000  00000000  000000f9  2**0
                  CONTENTS, ALLOC, LOAD, RELOC, READONLY, CODE
 14 .text._ZN10GprsSIM90014useMultiplexerEb 00000074  00000000  00000000  0000012f  2**0
                  CONTENTS, ALLOC, LOAD, RELOC, READONLY, CODE
 15 .text._ZN10GprsSIM9004sendEcPhj 00000010  00000000  00000000  000001a3  2**0
                  CONTENTS, ALLOC, LOAD, RELOC, READONLY, CODE
 16 .text._ZN10GprsSIM9006statusEv 00000022  00000000  00000000  000001b3  2**0
                  CONTENTS, ALLOC, LOAD, RELOC, READONLY, CODE
 17 .text._ZN10GprsSIM9008obtainIpEPh 00000114  00000000  00000000  000001d5  2**0
                  CONTENTS, ALLOC, LOAD, RELOC, READONLY, CODE
 18 .text._ZN5Print5writeEPKc 0000002c  00000000  00000000  000002e9  2**0
                  CONTENTS, ALLOC, LOAD, RELOC, READONLY, CODE
 19 .text._ZN6SIM90020sendCommandExpectingEPKcS1_ 00000024  00000000  00000000  00000315  2**0
                  CONTENTS, ALLOC, LOAD, RELOC, READONLY, CODE
 20 .text._ZN10GprsSIM9006attachEPKcS1_S1_ 00000080  00000000  00000000  00000339  2**0
                  CONTENTS, ALLOC, LOAD, RELOC, READONLY, CODE
 21 .text._ZN10GprsSIM90012configureDnsEPKcS1_ 00000060  00000000  00000000  000003b9  2**0
                  CONTENTS, ALLOC, LOAD, RELOC, READONLY, CODE
 22 .text._ZN10GprsSIM9004openEcPKcS1_j 000000c6  00000000  00000000  00000419  2**0
                  CONTENTS, ALLOC, LOAD, RELOC, READONLY, CODE
 23 .text._ZN10GprsSIM9005closeEc 0000005c  00000000  00000000  000004df  2**0
                  CONTENTS, ALLOC, LOAD, RELOC, READONLY, CODE
 24 .text._ZN10GprsSIM9007resolveEPKcPhj 00000034  00000000  00000000  0000053b  2**0
                  CONTENTS, ALLOC, LOAD, RELOC, READONLY, CODE
 25 .text._ZN10GprsSIM900C2EP6SIM900 00000012  00000000  00000000  0000056f  2**0
                  CONTENTS, ALLOC, LOAD, RELOC, READONLY, CODE
 26 .text._ZN10GprsSIM9005beginEl 0000003c  00000000  00000000  00000581  2**0
                  CONTENTS, ALLOC, LOAD, RELOC, READONLY, CODE
 27 .rodata._ZTV4Gprs 00000022  00000000  00000000  000005bd  2**0
                  CONTENTS, ALLOC, LOAD, RELOC, READONLY, DATA
 28 .rodata._ZTV10GprsSIM900 00000022  00000000  00000000  000005df  2**0
                  CONTENTS, ALLOC, LOAD, RELOC, READONLY, DATA
 29 .comment      00000012  00000000  00000000  00000601  2**0
                  CONTENTS, READONLY

Disassembly of section .text._ZN10GprsSIM9004openEPKcS1_j:

00000000 <_ZN10GprsSIM9004openEPKcS1_j>:
   0:	0f 93       	push	r16
   2:	1f 93       	push	r17
   4:	dc 01       	movw	r26, r24
   6:	ed 91       	ld	r30, X+
   8:	fc 91       	ld	r31, X
   a:	06 84       	ldd	r0, Z+14	; 0x0e
   c:	f7 85       	ldd	r31, Z+15	; 0x0f
   e:	e0 2d       	mov	r30, r0
  10:	89 01       	movw	r16, r18
  12:	9a 01       	movw	r18, r20
  14:	ab 01       	movw	r20, r22
  16:	6f ef       	ldi	r22, 0xFF	; 255
  18:	09 95       	icall
  1a:	1f 91       	pop	r17
  1c:	0f 91       	pop	r16
  1e:	08 95       	ret

Disassembly of section .text._ZN10GprsSIM9005closeEv:

00000020 <_ZN10GprsSIM9005closeEv>:
  20:	dc 01       	movw	r26, r24
  22:	ed 91       	ld	r30, X+
  24:	fc 91       	ld	r31, X
  26:	00 88       	ldd	r0, Z+16	; 0x10
  28:	f1 89       	ldd	r31, Z+17	; 0x11
  2a:	e0 2d       	mov	r30, r0
  2c:	6f ef       	ldi	r22, 0xFF	; 255
  2e:	09 94       	ijmp

Disassembly of section .text._ZN10GprsSIM9004sendEPhj:

00000050 <_ZN10GprsSIM9004sendEPhj>:
  50:	08 95       	ret

Disassembly of section .text._ZN10GprsSIM90011setUpServerEhj:

000000a2 <_ZN10GprsSIM90011setUpServerEhj>:
  a2:	08 95       	ret

Disassembly of section .text._ZN10GprsSIM9008shutdownEv:

00000146 <_ZN10GprsSIM9008shutdownEv>:
 146:	08 95       	ret

Disassembly of section .text._ZN10GprsSIM9007bringUpEv:

0000058b <_ZN10GprsSIM9007bringUpEv>:
 58b:	ef 92       	push	r14
 58d:	ff 92       	push	r15
 58f:	0f 93       	push	r16
 591:	1f 93       	push	r17
 593:	10 e2       	ldi	r17, 0x20	; 32
 595:	e1 2e       	mov	r14, r17
 597:	1e e4       	ldi	r17, 0x4E	; 78
 599:	f1 2e       	mov	r15, r17
 59b:	00 e0       	ldi	r16, 0x00	; 0
 59d:	10 e0       	ldi	r17, 0x00	; 0
 59f:	21 e0       	ldi	r18, 0x01	; 1
 5a1:	40 e0       	ldi	r20, 0x00	; 0
 5a3:	50 e0       	ldi	r21, 0x00	; 0
 5a5:	60 e0       	ldi	r22, 0x00	; 0
 5a7:	70 e0       	ldi	r23, 0x00	; 0
 5a9:	fc 01       	movw	r30, r24
 5ab:	82 81       	ldd	r24, Z+2	; 0x02
 5ad:	93 81       	ldd	r25, Z+3	; 0x03
 5af:	0e 94 00 00 	call	0	; 0x0 <__tmp_reg__>
 5b3:	91 e0       	ldi	r25, 0x01	; 1
 5b5:	89 27       	eor	r24, r25
 5b7:	1f 91       	pop	r17
 5b9:	0f 91       	pop	r16
 5bb:	ff 90       	pop	r15
 5bd:	ef 90       	pop	r14
 5bf:	08 95       	ret

Disassembly of section .text._ZN10GprsSIM90014useMultiplexerEb:

00000b4c <_ZN10GprsSIM90014useMultiplexerEb>:
 b4c:	ef 92       	push	r14
 b4e:	ff 92       	push	r15
 b50:	0f 93       	push	r16
 b52:	1f 93       	push	r17
 b54:	cf 93       	push	r28
 b56:	df 93       	push	r29
 b58:	cd b7       	in	r28, 0x3d	; 61
 b5a:	de b7       	in	r29, 0x3e	; 62
 b5c:	2a 97       	sbiw	r28, 0x0a	; 10
 b5e:	0f b6       	in	r0, 0x3f	; 63
 b60:	f8 94       	cli
 b62:	de bf       	out	0x3e, r29	; 62
 b64:	0f be       	out	0x3f, r0	; 63
 b66:	cd bf       	out	0x3d, r28	; 61
 b68:	2a e0       	ldi	r18, 0x0A	; 10
 b6a:	e0 e0       	ldi	r30, 0x00	; 0
 b6c:	f0 e0       	ldi	r31, 0x00	; 0
 b6e:	de 01       	movw	r26, r28
 b70:	11 96       	adiw	r26, 0x01	; 1
 b72:	01 90       	ld	r0, Z+
 b74:	0d 92       	st	X+, r0
 b76:	2a 95       	dec	r18
 b78:	01 f4       	brne	.+0      	; 0xb7a <_ZN10GprsSIM90014useMultiplexerEb+0x2e>
 b7a:	66 23       	and	r22, r22
 b7c:	01 f0       	breq	.+0      	; 0xb7e <_ZN10GprsSIM90014useMultiplexerEb+0x32>
 b7e:	21 e3       	ldi	r18, 0x31	; 49
 b80:	29 87       	std	Y+9, r18	; 0x09
 b82:	fc 01       	movw	r30, r24
 b84:	64 83       	std	Z+4, r22	; 0x04
 b86:	18 ee       	ldi	r17, 0xE8	; 232
 b88:	e1 2e       	mov	r14, r17
 b8a:	13 e0       	ldi	r17, 0x03	; 3
 b8c:	f1 2e       	mov	r15, r17
 b8e:	00 e0       	ldi	r16, 0x00	; 0
 b90:	10 e0       	ldi	r17, 0x00	; 0
 b92:	21 e0       	ldi	r18, 0x01	; 1
 b94:	40 e0       	ldi	r20, 0x00	; 0
 b96:	50 e0       	ldi	r21, 0x00	; 0
 b98:	be 01       	movw	r22, r28
 b9a:	6f 5f       	subi	r22, 0xFF	; 255
 b9c:	7f 4f       	sbci	r23, 0xFF	; 255
 b9e:	82 81       	ldd	r24, Z+2	; 0x02
 ba0:	93 81       	ldd	r25, Z+3	; 0x03
 ba2:	0e 94 00 00 	call	0	; 0x0 <__tmp_reg__>
 ba6:	2a 96       	adiw	r28, 0x0a	; 10
 ba8:	0f b6       	in	r0, 0x3f	; 63
 baa:	f8 94       	cli
 bac:	de bf       	out	0x3e, r29	; 62
 bae:	0f be       	out	0x3f, r0	; 63
 bb0:	cd bf       	out	0x3d, r28	; 61
 bb2:	df 91       	pop	r29
 bb4:	cf 91       	pop	r28
 bb6:	1f 91       	pop	r17
 bb8:	0f 91       	pop	r16
 bba:	ff 90       	pop	r15
 bbc:	ef 90       	pop	r14
 bbe:	08 95       	ret

Disassembly of section .text._ZN10GprsSIM9004sendEcPhj:

0000170c <_ZN10GprsSIM9004sendEcPhj>:
    170c:	ba 01       	movw	r22, r20
    170e:	a9 01       	movw	r20, r18
    1710:	fc 01       	movw	r30, r24
    1712:	82 81       	ldd	r24, Z+2	; 0x02
    1714:	93 81       	ldd	r25, Z+3	; 0x03
    1716:	0e 94 00 00 	call	0	; 0x0 <__tmp_reg__>
    171a:	08 95       	ret

Disassembly of section .text._ZN10GprsSIM9006statusEv:

00002e28 <_ZN10GprsSIM9006statusEv>:
    2e28:	0f 93       	push	r16
    2e2a:	1f 93       	push	r17
    2e2c:	08 ee       	ldi	r16, 0xE8	; 232
    2e2e:	13 e0       	ldi	r17, 0x03	; 3
    2e30:	20 e0       	ldi	r18, 0x00	; 0
    2e32:	30 e0       	ldi	r19, 0x00	; 0
    2e34:	41 e0       	ldi	r20, 0x01	; 1
    2e36:	60 e0       	ldi	r22, 0x00	; 0
    2e38:	70 e0       	ldi	r23, 0x00	; 0
    2e3a:	fc 01       	movw	r30, r24
    2e3c:	82 81       	ldd	r24, Z+2	; 0x02
    2e3e:	93 81       	ldd	r25, Z+3	; 0x03
    2e40:	0e 94 00 00 	call	0	; 0x0 <__tmp_reg__>
    2e44:	1f 91       	pop	r17
    2e46:	0f 91       	pop	r16
    2e48:	08 95       	ret

Disassembly of section .text._ZN10GprsSIM9008obtainIpEPh:

00005c72 <_ZN10GprsSIM9008obtainIpEPh>:
    5c72:	af 92       	push	r10
    5c74:	bf 92       	push	r11
    5c76:	cf 92       	push	r12
    5c78:	df 92       	push	r13
    5c7a:	ef 92       	push	r14
    5c7c:	ff 92       	push	r15
    5c7e:	0f 93       	push	r16
    5c80:	1f 93       	push	r17
    5c82:	cf 93       	push	r28
    5c84:	df 93       	push	r29
    5c86:	00 d0       	rcall	.+0      	; 0x5c88 <_ZN10GprsSIM9008obtainIpEPh+0x16>
    5c88:	00 d0       	rcall	.+0      	; 0x5c8a <_ZN10GprsSIM9008obtainIpEPh+0x18>
    5c8a:	cd b7       	in	r28, 0x3d	; 61
    5c8c:	de b7       	in	r29, 0x3e	; 62
    5c8e:	6c 01       	movw	r12, r24
    5c90:	7b 01       	movw	r14, r22
    5c92:	08 ee       	ldi	r16, 0xE8	; 232
    5c94:	13 e0       	ldi	r17, 0x03	; 3
    5c96:	20 e0       	ldi	r18, 0x00	; 0
    5c98:	30 e0       	ldi	r19, 0x00	; 0
    5c9a:	41 e0       	ldi	r20, 0x01	; 1
    5c9c:	60 e0       	ldi	r22, 0x00	; 0
    5c9e:	70 e0       	ldi	r23, 0x00	; 0
    5ca0:	dc 01       	movw	r26, r24
    5ca2:	12 96       	adiw	r26, 0x02	; 2
    5ca4:	8d 91       	ld	r24, X+
    5ca6:	9c 91       	ld	r25, X
    5ca8:	13 97       	sbiw	r26, 0x03	; 3
    5caa:	0e 94 00 00 	call	0	; 0x0 <__tmp_reg__>
    5cae:	60 e0       	ldi	r22, 0x00	; 0
    5cb0:	70 e0       	ldi	r23, 0x00	; 0
    5cb2:	f6 01       	movw	r30, r12
    5cb4:	82 81       	ldd	r24, Z+2	; 0x02
    5cb6:	93 81       	ldd	r25, Z+3	; 0x03
    5cb8:	0e 94 00 00 	call	0	; 0x0 <__tmp_reg__>
    5cbc:	81 11       	cpse	r24, r1
    5cbe:	00 c0       	rjmp	.+0      	; 0x5cc0 <_ZN10GprsSIM9008obtainIpEPh+0x4e>
    5cc0:	19 82       	std	Y+1, r1	; 0x01
    5cc2:	1a 82       	std	Y+2, r1	; 0x02
    5cc4:	1b 82       	std	Y+3, r1	; 0x03
    5cc6:	1c 82       	std	Y+4, r1	; 0x04
    5cc8:	d6 01       	movw	r26, r12
    5cca:	12 96       	adiw	r26, 0x02	; 2
    5ccc:	8d 91       	ld	r24, X+
    5cce:	9c 91       	ld	r25, X
    5cd0:	13 97       	sbiw	r26, 0x03	; 3
    5cd2:	8c 01       	movw	r16, r24
    5cd4:	01 5e       	subi	r16, 0xE1	; 225
    5cd6:	1f 4f       	sbci	r17, 0xFF	; 255
    5cd8:	fc 01       	movw	r30, r24
    5cda:	e1 5e       	subi	r30, 0xE1	; 225
    5cdc:	fe 4f       	sbci	r31, 0xFE	; 254
    5cde:	11 83       	std	Z+1, r17	; 0x01
    5ce0:	00 83       	st	Z, r16
    5ce2:	20 e0       	ldi	r18, 0x00	; 0
    5ce4:	b1 2c       	mov	r11, r1
    5ce6:	43 e0       	ldi	r20, 0x03	; 3
    5ce8:	a4 2e       	mov	r10, r20
    5cea:	f8 01       	movw	r30, r16
    5cec:	30 81       	ld	r19, Z
    5cee:	31 11       	cpse	r19, r1
    5cf0:	00 c0       	rjmp	.+0      	; 0x5cf2 <_ZN10GprsSIM9008obtainIpEPh+0x80>
    5cf2:	22 23       	and	r18, r18
    5cf4:	01 f0       	breq	.+0      	; 0x5cf6 <_ZN10GprsSIM9008obtainIpEPh+0x84>
    5cf6:	b3 94       	inc	r11
    5cf8:	ce 01       	movw	r24, r28
    5cfa:	01 96       	adiw	r24, 0x01	; 1
    5cfc:	0e 94 00 00 	call	0	; 0x0 <__tmp_reg__>
    5d00:	d7 01       	movw	r26, r14
    5d02:	8c 93       	st	X, r24
    5d04:	00 c0       	rjmp	.+0      	; 0x5d06 <_ZN10GprsSIM9008obtainIpEPh+0x94>
    5d06:	83 e0       	ldi	r24, 0x03	; 3
    5d08:	8b 15       	cp	r24, r11
    5d0a:	00 f0       	brcs	.+0      	; 0x5d0c <_ZN10GprsSIM9008obtainIpEPh+0x9a>
    5d0c:	80 ed       	ldi	r24, 0xD0	; 208
    5d0e:	83 0f       	add	r24, r19
    5d10:	8a 30       	cpi	r24, 0x0A	; 10
    5d12:	00 f4       	brcc	.+0      	; 0x5d14 <_ZN10GprsSIM9008obtainIpEPh+0xa2>
    5d14:	82 2f       	mov	r24, r18
    5d16:	6a 2d       	mov	r22, r10
    5d18:	0e 94 00 00 	call	0	; 0x0 <__tmp_reg__>
    5d1c:	a1 e0       	ldi	r26, 0x01	; 1
    5d1e:	b0 e0       	ldi	r27, 0x00	; 0
    5d20:	ac 0f       	add	r26, r28
    5d22:	bd 1f       	adc	r27, r29
    5d24:	a9 0f       	add	r26, r25
    5d26:	b1 1d       	adc	r27, r1
    5d28:	3c 93       	st	X, r19
    5d2a:	2f 5f       	subi	r18, 0xFF	; 255
    5d2c:	0f 5f       	subi	r16, 0xFF	; 255
    5d2e:	1f 4f       	sbci	r17, 0xFF	; 255
    5d30:	80 81       	ld	r24, Z
    5d32:	8e 32       	cpi	r24, 0x2E	; 46
    5d34:	01 f4       	brne	.+0      	; 0x5d36 <_ZN10GprsSIM9008obtainIpEPh+0xc4>
    5d36:	b3 94       	inc	r11
    5d38:	67 01       	movw	r12, r14
    5d3a:	bf ef       	ldi	r27, 0xFF	; 255
    5d3c:	cb 1a       	sub	r12, r27
    5d3e:	db 0a       	sbc	r13, r27
    5d40:	ce 01       	movw	r24, r28
    5d42:	01 96       	adiw	r24, 0x01	; 1
    5d44:	0e 94 00 00 	call	0	; 0x0 <__tmp_reg__>
    5d48:	f7 01       	movw	r30, r14
    5d4a:	80 83       	st	Z, r24
    5d4c:	19 82       	std	Y+1, r1	; 0x01
    5d4e:	1a 82       	std	Y+2, r1	; 0x02
    5d50:	1b 82       	std	Y+3, r1	; 0x03
    5d52:	1c 82       	std	Y+4, r1	; 0x04
    5d54:	76 01       	movw	r14, r12
    5d56:	20 e0       	ldi	r18, 0x00	; 0
    5d58:	00 c0       	rjmp	.+0      	; 0x5d5a <_ZN10GprsSIM9008obtainIpEPh+0xe8>
    5d5a:	81 e0       	ldi	r24, 0x01	; 1
    5d5c:	b4 e0       	ldi	r27, 0x04	; 4
    5d5e:	bb 12       	cpse	r11, r27
    5d60:	00 c0       	rjmp	.+0      	; 0x5d62 <_ZN10GprsSIM9008obtainIpEPh+0xf0>
    5d62:	80 e0       	ldi	r24, 0x00	; 0
    5d64:	00 c0       	rjmp	.+0      	; 0x5d66 <_ZN10GprsSIM9008obtainIpEPh+0xf4>
    5d66:	81 e0       	ldi	r24, 0x01	; 1
    5d68:	0f 90       	pop	r0
    5d6a:	0f 90       	pop	r0
    5d6c:	0f 90       	pop	r0
    5d6e:	0f 90       	pop	r0
    5d70:	df 91       	pop	r29
    5d72:	cf 91       	pop	r28
    5d74:	1f 91       	pop	r17
    5d76:	0f 91       	pop	r16
    5d78:	ff 90       	pop	r15
    5d7a:	ef 90       	pop	r14
    5d7c:	df 90       	pop	r13
    5d7e:	cf 90       	pop	r12
    5d80:	bf 90       	pop	r11
    5d82:	af 90       	pop	r10
    5d84:	08 95       	ret

Disassembly of section .text._ZN5Print5writeEPKc:

0000b9f8 <_ZN5Print5writeEPKc>:
    b9f8:	61 15       	cp	r22, r1
    b9fa:	71 05       	cpc	r23, r1
    b9fc:	01 f0       	breq	.+0      	; 0xb9fe <_ZN5Print5writeEPKc+0x6>
    b9fe:	db 01       	movw	r26, r22
    ba00:	0d 90       	ld	r0, X+
    ba02:	00 20       	and	r0, r0
    ba04:	01 f4       	brne	.+0      	; 0xba06 <_ZN5Print5writeEPKc+0xe>
    ba06:	ad 01       	movw	r20, r26
    ba08:	41 50       	subi	r20, 0x01	; 1
    ba0a:	51 09       	sbc	r21, r1
    ba0c:	46 1b       	sub	r20, r22
    ba0e:	57 0b       	sbc	r21, r23
    ba10:	dc 01       	movw	r26, r24
    ba12:	ed 91       	ld	r30, X+
    ba14:	fc 91       	ld	r31, X
    ba16:	02 80       	ldd	r0, Z+2	; 0x02
    ba18:	f3 81       	ldd	r31, Z+3	; 0x03
    ba1a:	e0 2d       	mov	r30, r0
    ba1c:	09 94       	ijmp
    ba1e:	80 e0       	ldi	r24, 0x00	; 0
    ba20:	90 e0       	ldi	r25, 0x00	; 0
    ba22:	08 95       	ret

Disassembly of section .text._ZN6SIM90020sendCommandExpectingEPKcS1_:

0001741c <_ZN6SIM90020sendCommandExpectingEPKcS1_>:
   1741c:	ef 92       	push	r14
   1741e:	ff 92       	push	r15
   17420:	0f 93       	push	r16
   17422:	1f 93       	push	r17
   17424:	18 ee       	ldi	r17, 0xE8	; 232
   17426:	e1 2e       	mov	r14, r17
   17428:	13 e0       	ldi	r17, 0x03	; 3
   1742a:	f1 2e       	mov	r15, r17
   1742c:	00 e0       	ldi	r16, 0x00	; 0
   1742e:	10 e0       	ldi	r17, 0x00	; 0
   17430:	20 e0       	ldi	r18, 0x00	; 0
   17432:	0e 94 00 00 	call	0	; 0x0 <__tmp_reg__>
   17436:	1f 91       	pop	r17
   17438:	0f 91       	pop	r16
   1743a:	ff 90       	pop	r15
   1743c:	ef 90       	pop	r14
   1743e:	08 95       	ret

Disassembly of section .text._ZN10GprsSIM9006attachEPKcS1_S1_:

0002e85c <_ZN10GprsSIM9006attachEPKcS1_S1_>:
   2e85c:	cf 92       	push	r12
   2e85e:	df 92       	push	r13
   2e860:	ef 92       	push	r14
   2e862:	ff 92       	push	r15
   2e864:	0f 93       	push	r16
   2e866:	1f 93       	push	r17
   2e868:	cf 93       	push	r28
   2e86a:	df 93       	push	r29
   2e86c:	ec 01       	movw	r28, r24
   2e86e:	8b 01       	movw	r16, r22
   2e870:	6a 01       	movw	r12, r20
   2e872:	79 01       	movw	r14, r18
   2e874:	60 e0       	ldi	r22, 0x00	; 0
   2e876:	70 e0       	ldi	r23, 0x00	; 0
   2e878:	8a 81       	ldd	r24, Y+2	; 0x02
   2e87a:	9b 81       	ldd	r25, Y+3	; 0x03
   2e87c:	0e 94 00 00 	call	0	; 0x0 <__tmp_reg__>
   2e880:	b8 01       	movw	r22, r16
   2e882:	8a 81       	ldd	r24, Y+2	; 0x02
   2e884:	9b 81       	ldd	r25, Y+3	; 0x03
   2e886:	0e 94 00 00 	call	0	; 0x0 <__tmp_reg__>
   2e88a:	60 e0       	ldi	r22, 0x00	; 0
   2e88c:	70 e0       	ldi	r23, 0x00	; 0
   2e88e:	8a 81       	ldd	r24, Y+2	; 0x02
   2e890:	9b 81       	ldd	r25, Y+3	; 0x03
   2e892:	0e 94 00 00 	call	0	; 0x0 <__tmp_reg__>
   2e896:	b6 01       	movw	r22, r12
   2e898:	8a 81       	ldd	r24, Y+2	; 0x02
   2e89a:	9b 81       	ldd	r25, Y+3	; 0x03
   2e89c:	0e 94 00 00 	call	0	; 0x0 <__tmp_reg__>
   2e8a0:	60 e0       	ldi	r22, 0x00	; 0
   2e8a2:	70 e0       	ldi	r23, 0x00	; 0
   2e8a4:	8a 81       	ldd	r24, Y+2	; 0x02
   2e8a6:	9b 81       	ldd	r25, Y+3	; 0x03
   2e8a8:	0e 94 00 00 	call	0	; 0x0 <__tmp_reg__>
   2e8ac:	b7 01       	movw	r22, r14
   2e8ae:	8a 81       	ldd	r24, Y+2	; 0x02
   2e8b0:	9b 81       	ldd	r25, Y+3	; 0x03
   2e8b2:	0e 94 00 00 	call	0	; 0x0 <__tmp_reg__>
   2e8b6:	40 e0       	ldi	r20, 0x00	; 0
   2e8b8:	50 e0       	ldi	r21, 0x00	; 0
   2e8ba:	60 e0       	ldi	r22, 0x00	; 0
   2e8bc:	70 e0       	ldi	r23, 0x00	; 0
   2e8be:	8a 81       	ldd	r24, Y+2	; 0x02
   2e8c0:	9b 81       	ldd	r25, Y+3	; 0x03
   2e8c2:	0e 94 00 00 	call	0	; 0x0 <__tmp_reg__>
   2e8c6:	91 e0       	ldi	r25, 0x01	; 1
   2e8c8:	89 27       	eor	r24, r25
   2e8ca:	df 91       	pop	r29
   2e8cc:	cf 91       	pop	r28
   2e8ce:	1f 91       	pop	r17
   2e8d0:	0f 91       	pop	r16
   2e8d2:	ff 90       	pop	r15
   2e8d4:	ef 90       	pop	r14
   2e8d6:	df 90       	pop	r13
   2e8d8:	cf 90       	pop	r12
   2e8da:	08 95       	ret

Disassembly of section .text._ZN10GprsSIM90012configureDnsEPKcS1_:

0005d138 <_ZN10GprsSIM90012configureDnsEPKcS1_>:
   5d138:	ef 92       	push	r14
   5d13a:	ff 92       	push	r15
   5d13c:	0f 93       	push	r16
   5d13e:	1f 93       	push	r17
   5d140:	cf 93       	push	r28
   5d142:	df 93       	push	r29
   5d144:	ec 01       	movw	r28, r24
   5d146:	8b 01       	movw	r16, r22
   5d148:	7a 01       	movw	r14, r20
   5d14a:	60 e0       	ldi	r22, 0x00	; 0
   5d14c:	70 e0       	ldi	r23, 0x00	; 0
   5d14e:	8a 81       	ldd	r24, Y+2	; 0x02
   5d150:	9b 81       	ldd	r25, Y+3	; 0x03
   5d152:	0e 94 00 00 	call	0	; 0x0 <__tmp_reg__>
   5d156:	b8 01       	movw	r22, r16
   5d158:	8a 81       	ldd	r24, Y+2	; 0x02
   5d15a:	9b 81       	ldd	r25, Y+3	; 0x03
   5d15c:	0e 94 00 00 	call	0	; 0x0 <__tmp_reg__>
   5d160:	60 e0       	ldi	r22, 0x00	; 0
   5d162:	70 e0       	ldi	r23, 0x00	; 0
   5d164:	8a 81       	ldd	r24, Y+2	; 0x02
   5d166:	9b 81       	ldd	r25, Y+3	; 0x03
   5d168:	0e 94 00 00 	call	0	; 0x0 <__tmp_reg__>
   5d16c:	b7 01       	movw	r22, r14
   5d16e:	8a 81       	ldd	r24, Y+2	; 0x02
   5d170:	9b 81       	ldd	r25, Y+3	; 0x03
   5d172:	0e 94 00 00 	call	0	; 0x0 <__tmp_reg__>
   5d176:	40 e0       	ldi	r20, 0x00	; 0
   5d178:	50 e0       	ldi	r21, 0x00	; 0
   5d17a:	60 e0       	ldi	r22, 0x00	; 0
   5d17c:	70 e0       	ldi	r23, 0x00	; 0
   5d17e:	8a 81       	ldd	r24, Y+2	; 0x02
   5d180:	9b 81       	ldd	r25, Y+3	; 0x03
   5d182:	0e 94 00 00 	call	0	; 0x0 <__tmp_reg__>
   5d186:	91 e0       	ldi	r25, 0x01	; 1
   5d188:	89 27       	eor	r24, r25
   5d18a:	df 91       	pop	r29
   5d18c:	cf 91       	pop	r28
   5d18e:	1f 91       	pop	r17
   5d190:	0f 91       	pop	r16
   5d192:	ff 90       	pop	r15
   5d194:	ef 90       	pop	r14
   5d196:	08 95       	ret

Disassembly of section .text._ZN10GprsSIM9004openEcPKcS1_j:

000ba2d0 <_ZN10GprsSIM9004openEcPKcS1_j>:
   ba2d0:	bf 92       	push	r11
   ba2d2:	cf 92       	push	r12
   ba2d4:	df 92       	push	r13
   ba2d6:	ef 92       	push	r14
   ba2d8:	ff 92       	push	r15
   ba2da:	0f 93       	push	r16
   ba2dc:	1f 93       	push	r17
   ba2de:	cf 93       	push	r28
   ba2e0:	df 93       	push	r29
   ba2e2:	ec 01       	movw	r28, r24
   ba2e4:	b6 2e       	mov	r11, r22
   ba2e6:	7a 01       	movw	r14, r20
   ba2e8:	69 01       	movw	r12, r18
   ba2ea:	60 e0       	ldi	r22, 0x00	; 0
   ba2ec:	70 e0       	ldi	r23, 0x00	; 0
   ba2ee:	8a 81       	ldd	r24, Y+2	; 0x02
   ba2f0:	9b 81       	ldd	r25, Y+3	; 0x03
   ba2f2:	0e 94 00 00 	call	0	; 0x0 <__tmp_reg__>
   ba2f6:	8a 81       	ldd	r24, Y+2	; 0x02
   ba2f8:	9b 81       	ldd	r25, Y+3	; 0x03
   ba2fa:	dc 01       	movw	r26, r24
   ba2fc:	ed 91       	ld	r30, X+
   ba2fe:	fc 91       	ld	r31, X
   ba300:	60 e3       	ldi	r22, 0x30	; 48
   ba302:	6b 0d       	add	r22, r11
   ba304:	01 90       	ld	r0, Z+
   ba306:	f0 81       	ld	r31, Z
   ba308:	e0 2d       	mov	r30, r0
   ba30a:	09 95       	icall
   ba30c:	8a 81       	ldd	r24, Y+2	; 0x02
   ba30e:	9b 81       	ldd	r25, Y+3	; 0x03
   ba310:	dc 01       	movw	r26, r24
   ba312:	ed 91       	ld	r30, X+
   ba314:	fc 91       	ld	r31, X
   ba316:	01 90       	ld	r0, Z+
   ba318:	f0 81       	ld	r31, Z
   ba31a:	e0 2d       	mov	r30, r0
   ba31c:	6c e2       	ldi	r22, 0x2C	; 44
   ba31e:	09 95       	icall
   ba320:	8a 81       	ldd	r24, Y+2	; 0x02
   ba322:	9b 81       	ldd	r25, Y+3	; 0x03
   ba324:	dc 01       	movw	r26, r24
   ba326:	ed 91       	ld	r30, X+
   ba328:	fc 91       	ld	r31, X
   ba32a:	01 90       	ld	r0, Z+
   ba32c:	f0 81       	ld	r31, Z
   ba32e:	e0 2d       	mov	r30, r0
   ba330:	62 e2       	ldi	r22, 0x22	; 34
   ba332:	09 95       	icall
   ba334:	b7 01       	movw	r22, r14
   ba336:	8a 81       	ldd	r24, Y+2	; 0x02
   ba338:	9b 81       	ldd	r25, Y+3	; 0x03
   ba33a:	0e 94 00 00 	call	0	; 0x0 <__tmp_reg__>
   ba33e:	60 e0       	ldi	r22, 0x00	; 0
   ba340:	70 e0       	ldi	r23, 0x00	; 0
   ba342:	8a 81       	ldd	r24, Y+2	; 0x02
   ba344:	9b 81       	ldd	r25, Y+3	; 0x03
   ba346:	0e 94 00 00 	call	0	; 0x0 <__tmp_reg__>
   ba34a:	b6 01       	movw	r22, r12
   ba34c:	8a 81       	ldd	r24, Y+2	; 0x02
   ba34e:	9b 81       	ldd	r25, Y+3	; 0x03
   ba350:	0e 94 00 00 	call	0	; 0x0 <__tmp_reg__>
   ba354:	60 e0       	ldi	r22, 0x00	; 0
   ba356:	70 e0       	ldi	r23, 0x00	; 0
   ba358:	8a 81       	ldd	r24, Y+2	; 0x02
   ba35a:	9b 81       	ldd	r25, Y+3	; 0x03
   ba35c:	0e 94 00 00 	call	0	; 0x0 <__tmp_reg__>
   ba360:	4a e0       	ldi	r20, 0x0A	; 10
   ba362:	50 e0       	ldi	r21, 0x00	; 0
   ba364:	b8 01       	movw	r22, r16
   ba366:	8a 81       	ldd	r24, Y+2	; 0x02
   ba368:	9b 81       	ldd	r25, Y+3	; 0x03
   ba36a:	0e 94 00 00 	call	0	; 0x0 <__tmp_reg__>
   ba36e:	40 e0       	ldi	r20, 0x00	; 0
   ba370:	50 e0       	ldi	r21, 0x00	; 0
   ba372:	60 e0       	ldi	r22, 0x00	; 0
   ba374:	70 e0       	ldi	r23, 0x00	; 0
   ba376:	8a 81       	ldd	r24, Y+2	; 0x02
   ba378:	9b 81       	ldd	r25, Y+3	; 0x03
   ba37a:	0e 94 00 00 	call	0	; 0x0 <__tmp_reg__>
   ba37e:	91 e0       	ldi	r25, 0x01	; 1
   ba380:	89 27       	eor	r24, r25
   ba382:	df 91       	pop	r29
   ba384:	cf 91       	pop	r28
   ba386:	1f 91       	pop	r17
   ba388:	0f 91       	pop	r16
   ba38a:	ff 90       	pop	r15
   ba38c:	ef 90       	pop	r14
   ba38e:	df 90       	pop	r13
   ba390:	cf 90       	pop	r12
   ba392:	bf 90       	pop	r11
   ba394:	08 95       	ret

Disassembly of section .text._ZN10GprsSIM9005closeEc:

00174666 <_ZN10GprsSIM9005closeEc>:
  174666:	1f 93       	push	r17
  174668:	cf 93       	push	r28
  17466a:	df 93       	push	r29
  17466c:	ec 01       	movw	r28, r24
  17466e:	16 2f       	mov	r17, r22
  174670:	60 e0       	ldi	r22, 0x00	; 0
  174672:	70 e0       	ldi	r23, 0x00	; 0
  174674:	8a 81       	ldd	r24, Y+2	; 0x02
  174676:	9b 81       	ldd	r25, Y+3	; 0x03
  174678:	0e 94 00 00 	call	0	; 0x0 <__tmp_reg__>
  17467c:	8a 81       	ldd	r24, Y+2	; 0x02
  17467e:	9b 81       	ldd	r25, Y+3	; 0x03
  174680:	dc 01       	movw	r26, r24
  174682:	ed 91       	ld	r30, X+
  174684:	fc 91       	ld	r31, X
  174686:	01 90       	ld	r0, Z+
  174688:	f0 81       	ld	r31, Z
  17468a:	e0 2d       	mov	r30, r0
  17468c:	6c e2       	ldi	r22, 0x2C	; 44
  17468e:	09 95       	icall
  174690:	8a 81       	ldd	r24, Y+2	; 0x02
  174692:	9b 81       	ldd	r25, Y+3	; 0x03
  174694:	dc 01       	movw	r26, r24
  174696:	ed 91       	ld	r30, X+
  174698:	fc 91       	ld	r31, X
  17469a:	60 e3       	ldi	r22, 0x30	; 48
  17469c:	61 0f       	add	r22, r17
  17469e:	01 90       	ld	r0, Z+
  1746a0:	f0 81       	ld	r31, Z
  1746a2:	e0 2d       	mov	r30, r0
  1746a4:	09 95       	icall
  1746a6:	40 e0       	ldi	r20, 0x00	; 0
  1746a8:	50 e0       	ldi	r21, 0x00	; 0
  1746aa:	60 e0       	ldi	r22, 0x00	; 0
  1746ac:	70 e0       	ldi	r23, 0x00	; 0
  1746ae:	8a 81       	ldd	r24, Y+2	; 0x02
  1746b0:	9b 81       	ldd	r25, Y+3	; 0x03
  1746b2:	0e 94 00 00 	call	0	; 0x0 <__tmp_reg__>
  1746b6:	91 e0       	ldi	r25, 0x01	; 1
  1746b8:	89 27       	eor	r24, r25
  1746ba:	df 91       	pop	r29
  1746bc:	cf 91       	pop	r28
  1746be:	1f 91       	pop	r17
  1746c0:	08 95       	ret

Disassembly of section .text._ZN10GprsSIM9007resolveEPKcPhj:

002e8d28 <_ZN10GprsSIM9007resolveEPKcPhj>:
  2e8d28:	0f 93       	push	r16
  2e8d2a:	1f 93       	push	r17
  2e8d2c:	cf 93       	push	r28
  2e8d2e:	df 93       	push	r29
  2e8d30:	ec 01       	movw	r28, r24
  2e8d32:	8b 01       	movw	r16, r22
  2e8d34:	60 e0       	ldi	r22, 0x00	; 0
  2e8d36:	70 e0       	ldi	r23, 0x00	; 0
  2e8d38:	8a 81       	ldd	r24, Y+2	; 0x02
  2e8d3a:	9b 81       	ldd	r25, Y+3	; 0x03
  2e8d3c:	0e 94 00 00 	call	0	; 0x0 <__tmp_reg__>
  2e8d40:	40 e0       	ldi	r20, 0x00	; 0
  2e8d42:	50 e0       	ldi	r21, 0x00	; 0
  2e8d44:	b8 01       	movw	r22, r16
  2e8d46:	8a 81       	ldd	r24, Y+2	; 0x02
  2e8d48:	9b 81       	ldd	r25, Y+3	; 0x03
  2e8d4a:	0e 94 00 00 	call	0	; 0x0 <__tmp_reg__>
  2e8d4e:	91 e0       	ldi	r25, 0x01	; 1
  2e8d50:	89 27       	eor	r24, r25
  2e8d52:	df 91       	pop	r29
  2e8d54:	cf 91       	pop	r28
  2e8d56:	1f 91       	pop	r17
  2e8d58:	0f 91       	pop	r16
  2e8d5a:	08 95       	ret

Disassembly of section .text._ZN10GprsSIM900C2EP6SIM900:

005d1a84 <_ZN10GprsSIM900C1EP6SIM900>:
  5d1a84:	fc 01       	movw	r30, r24
  5d1a86:	80 e0       	ldi	r24, 0x00	; 0
  5d1a88:	90 e0       	ldi	r25, 0x00	; 0
  5d1a8a:	91 83       	std	Z+1, r25	; 0x01
  5d1a8c:	80 83       	st	Z, r24
  5d1a8e:	73 83       	std	Z+3, r23	; 0x03
  5d1a90:	62 83       	std	Z+2, r22	; 0x02
  5d1a92:	14 82       	std	Z+4, r1	; 0x04
  5d1a94:	08 95       	ret

Disassembly of section .text._ZN10GprsSIM9005beginEl:

00ba351a <_ZN10GprsSIM9005beginEl>:
  ba351a:	0f 93       	push	r16
  ba351c:	1f 93       	push	r17
  ba351e:	cf 93       	push	r28
  ba3520:	df 93       	push	r29
  ba3522:	ec 01       	movw	r28, r24
  ba3524:	8a 81       	ldd	r24, Y+2	; 0x02
  ba3526:	9b 81       	ldd	r25, Y+3	; 0x03
  ba3528:	0e 94 00 00 	call	0	; 0x0 <__tmp_reg__>
  ba352c:	60 e0       	ldi	r22, 0x00	; 0
  ba352e:	8a 81       	ldd	r24, Y+2	; 0x02
  ba3530:	9b 81       	ldd	r25, Y+3	; 0x03
  ba3532:	0e 94 00 00 	call	0	; 0x0 <__tmp_reg__>
  ba3536:	08 ee       	ldi	r16, 0xE8	; 232
  ba3538:	13 e0       	ldi	r17, 0x03	; 3
  ba353a:	20 e0       	ldi	r18, 0x00	; 0
  ba353c:	30 e0       	ldi	r19, 0x00	; 0
  ba353e:	41 e0       	ldi	r20, 0x01	; 1
  ba3540:	60 e0       	ldi	r22, 0x00	; 0
  ba3542:	70 e0       	ldi	r23, 0x00	; 0
  ba3544:	8a 81       	ldd	r24, Y+2	; 0x02
  ba3546:	9b 81       	ldd	r25, Y+3	; 0x03
  ba3548:	0e 94 00 00 	call	0	; 0x0 <__tmp_reg__>
  ba354c:	df 91       	pop	r29
  ba354e:	cf 91       	pop	r28
  ba3550:	1f 91       	pop	r17
  ba3552:	0f 91       	pop	r16
  ba3554:	08 95       	ret

Gprs.o:     file format elf32-avr

Sections:
Idx Name          Size      VMA       LMA       File off  Algn
  0 .text         00000000  00000000  00000000  00000034  2**0
                  CONTENTS, ALLOC, LOAD, READONLY, CODE
  1 .data         00000000  00000000  00000000  00000034  2**0
                  CONTENTS, ALLOC, LOAD, DATA
  2 .bss          00000000  00000000  00000000  00000034  2**0
                  ALLOC
  3 .comment      00000012  00000000  00000000  00000034  2**0
                  CONTENTS, READONLY

CallSIM900.o:     file format elf32-avr

Sections:
Idx Name          Size      VMA       LMA       File off  Algn
  0 .group        00000008  00000000  00000000  00000034  2**2
                  CONTENTS, READONLY, EXCLUDE, GROUP, LINK_ONCE_DISCARD
  1 .group        00000008  00000000  00000000  0000003c  2**2
                  CONTENTS, READONLY, EXCLUDE, GROUP, LINK_ONCE_DISCARD
  2 .text         00000000  00000000  00000000  00000044  2**0
                  CONTENTS, ALLOC, LOAD, READONLY, CODE
  3 .data         00000000  00000000  00000000  00000044  2**0
                  CONTENTS, ALLOC, LOAD, DATA
  4 .bss          00000000  00000000  00000000  00000044  2**0
                  ALLOC
  5 .text._ZN10CallSIM9006answerEv 00000002  00000000  00000000  00000044  2**0
                  CONTENTS, ALLOC, LOAD, READONLY, CODE
  6 .text._ZN10CallSIM90010callNumberEPh 00000002  00000000  00000000  00000046  2**0
                  CONTENTS, ALLOC, LOAD, READONLY, CODE
  7 .text._ZN10CallSIM90017callFromPhonebookEh 00000002  00000000  00000000  00000048  2**0
                  CONTENTS, ALLOC, LOAD, READONLY, CODE
  8 .text._ZN10CallSIM90020callByPhonebookMatchEPh 00000002  00000000  00000000  0000004a  2**0
                  CONTENTS, ALLOC, LOAD, READONLY, CODE
  9 .text._ZN10CallSIM9006redialEv 00000002  00000000  00000000  0000004c  2**0
                  CONTENTS, ALLOC, LOAD, READONLY, CODE
 10 .text._ZN10CallSIM90010disconnectEv 00000002  00000000  00000000  0000004e  2**0
                  CONTENTS, ALLOC, LOAD, READONLY, CODE
 11 .text._ZN10CallSIM900C2EP6SIM900 00000010  00000000  00000000  00000050  2**0
                  CONTENTS, ALLOC, LOAD, RELOC, READONLY, CODE
 12 .rodata._ZTV4Call 00000010  00000000  00000000  00000060  2**0
                  CONTENTS, ALLOC, LOAD, RELOC, READONLY, DATA
 13 .rodata._ZTV10CallSIM900 00000010  00000000  00000000  00000070  2**0
                  CONTENTS, ALLOC, LOAD, RELOC, READONLY, DATA
 14 .comment      00000012  00000000  00000000  00000080  2**0
                  CONTENTS, READONLY

Disassembly of section .text._ZN10CallSIM9006answerEv:

00000000 <_ZN10CallSIM9006answerEv>:
   0:	08 95       	ret

Disassembly of section .text._ZN10CallSIM90010callNumberEPh:

00000000 <_ZN10CallSIM90010callNumberEPh>:
   2:	08 95       	Address 0x0000000000000002 is out of bounds.
.word	0xffff	; ????

Disassembly of section .text._ZN10CallSIM90017callFromPhonebookEh:

00000006 <_ZN10CallSIM90017callFromPhonebookEh>:
   6:	08 95       	ret

Disassembly of section .text._ZN10CallSIM90020callByPhonebookMatchEPh:

0000000e <_ZN10CallSIM90020callByPhonebookMatchEPh>:
   e:	08 95       	ret

Disassembly of section .text._ZN10CallSIM9006redialEv:

0000001e <_ZN10CallSIM9006redialEv>:
  1e:	08 95       	ret

Disassembly of section .text._ZN10CallSIM90010disconnectEv:

0000003e <_ZN10CallSIM90010disconnectEv>:
  3e:	08 95       	ret

Disassembly of section .text._ZN10CallSIM900C2EP6SIM900:

0000007e <_ZN10CallSIM900C1EP6SIM900>:
  7e:	20 e0       	ldi	r18, 0x00	; 0
  80:	30 e0       	ldi	r19, 0x00	; 0
  82:	fc 01       	movw	r30, r24
  84:	31 83       	std	Z+1, r19	; 0x01
  86:	20 83       	st	Z, r18
  88:	73 83       	std	Z+3, r23	; 0x03
  8a:	62 83       	std	Z+2, r22	; 0x02
  8c:	08 95       	ret

Call.o:     file format elf32-avr

Sections:
Idx Name          Size      VMA       LMA       File off  Algn
  0 .text         00000000  00000000  00000000  00000034  2**0
                  CONTENTS, ALLOC, LOAD, READONLY, CODE
  1 .data         00000000  00000000  00000000  00000034  2**0
                  CONTENTS, ALLOC, LOAD, DATA
  2 .bss          00000000  00000000  00000000  00000034  2**0
                  ALLOC
  3 .comment      00000012  00000000  00000000  00000034  2**0
                  CONTENTS, READONLY
